target datalayout = "e-m:e-p270:32:32-p271:32:32-p272:64:64-i64:64-i128:128-f80:128-n8:16:32:64-S128"
target triple = "x86_64-pc-linux-gnu"

%struct.UTrie2 = type { ptr, ptr, ptr, i32, i32, i16, i16, i32, i32, i32, i32, ptr, i32, i8, i8, i16, ptr }

@_ZL9propsTrie = internal constant %struct.UTrie2 { ptr @_ZL15propsTrie_index, ptr getelementptr (i8, ptr @_ZL15propsTrie_index, i64 9496), ptr null, i32 4748, i32 19048, i16 2624, i16 4876, i32 0, i32 0, i32 1114112, i32 23792, ptr null, i32 0, i8 0, i8 0, i16 0, ptr null }, align 8

; Function Attrs: mustprogress nounwind uwtable
define signext i8 @u_isprint_77(i32 noundef %0) #0 {
  %2 = alloca i32, align 4
  %3 = alloca i32, align 4
  store i32 %0, ptr %2, align 4, !tbaa !3
  call void @llvm.lifetime.start.p0(i64 4, ptr %3) #6
  %4 = load ptr, ptr @_ZL9propsTrie, align 8, !tbaa !7
  %5 = load i32, ptr %2, align 4, !tbaa !3
  %6 = icmp ult i32 %5, 55296
  br i1 %6, label %7, label %20

7:                                                ; preds = %1
  %8 = load ptr, ptr @_ZL9propsTrie, align 8, !tbaa !7
  %9 = load i32, ptr %2, align 4, !tbaa !3
  %10 = ashr i32 %9, 5
  %11 = add nsw i32 0, %10
  %12 = sext i32 %11 to i64
  %13 = getelementptr inbounds i16, ptr %8, i64 %12
  %14 = load i16, ptr %13, align 2, !tbaa !14
  %15 = zext i16 %14 to i32
  %16 = shl i32 %15, 2
  %17 = load i32, ptr %2, align 4, !tbaa !3
  %18 = and i32 %17, 31
  %19 = add nsw i32 %16, %18
  br label %75

20:                                               ; preds = %1
  %21 = load i32, ptr %2, align 4, !tbaa !3
  %22 = icmp ule i32 %21, 65535
  br i1 %22, label %23, label %39

23:                                               ; preds = %20
  %24 = load ptr, ptr @_ZL9propsTrie, align 8, !tbaa !7
  %25 = load i32, ptr %2, align 4, !tbaa !3
  %26 = icmp sle i32 %25, 56319
  %27 = select i1 %26, i32 320, i32 0
  %28 = load i32, ptr %2, align 4, !tbaa !3
  %29 = ashr i32 %28, 5
  %30 = add nsw i32 %27, %29
  %31 = sext i32 %30 to i64
  %32 = getelementptr inbounds i16, ptr %24, i64 %31
  %33 = load i16, ptr %32, align 2, !tbaa !14
  %34 = zext i16 %33 to i32
  %35 = shl i32 %34, 2
  %36 = load i32, ptr %2, align 4, !tbaa !3
  %37 = and i32 %36, 31
  %38 = add nsw i32 %35, %37
  br label %73

39:                                               ; preds = %20
  %40 = load i32, ptr %2, align 4, !tbaa !3
  %41 = icmp ugt i32 %40, 1114111
  br i1 %41, label %42, label %43

42:                                               ; preds = %39
  br label %71

43:                                               ; preds = %39
  %44 = load i32, ptr %2, align 4, !tbaa !3
  %45 = icmp sge i32 %44, 1114112
  br i1 %45, label %46, label %47

46:                                               ; preds = %43
  br label %69

47:                                               ; preds = %43
  %48 = load ptr, ptr @_ZL9propsTrie, align 8, !tbaa !7
  %49 = load ptr, ptr @_ZL9propsTrie, align 8, !tbaa !7
  %50 = load i32, ptr %2, align 4, !tbaa !3
  %51 = ashr i32 %50, 11
  %52 = add nsw i32 2080, %51
  %53 = sext i32 %52 to i64
  %54 = getelementptr inbounds i16, ptr %49, i64 %53
  %55 = load i16, ptr %54, align 2, !tbaa !14
  %56 = zext i16 %55 to i32
  %57 = load i32, ptr %2, align 4, !tbaa !3
  %58 = ashr i32 %57, 5
  %59 = and i32 %58, 63
  %60 = add nsw i32 %56, %59
  %61 = sext i32 %60 to i64
  %62 = getelementptr inbounds i16, ptr %48, i64 %61
  %63 = load i16, ptr %62, align 2, !tbaa !14
  %64 = zext i16 %63 to i32
  %65 = shl i32 %64, 2
  %66 = load i32, ptr %2, align 4, !tbaa !3
  %67 = and i32 %66, 31
  %68 = add nsw i32 %65, %67
  br label %69

69:                                               ; preds = %47, %46
  %70 = phi i32 [ 23792, %46 ], [ %68, %47 ]
  br label %71

71:                                               ; preds = %69, %42
  %72 = phi i32 [ 4876, %42 ], [ %70, %69 ]
  br label %73

73:                                               ; preds = %71, %23
  %74 = phi i32 [ %38, %23 ], [ %72, %71 ]
  br label %75

75:                                               ; preds = %73, %7
  %76 = phi i32 [ %19, %7 ], [ %74, %73 ]
  %77 = sext i32 %76 to i64
  %78 = getelementptr inbounds i16, ptr %4, i64 %77
  %79 = load i16, ptr %78, align 2, !tbaa !14
  %80 = zext i16 %79 to i32
  store i32 %80, ptr %3, align 4, !tbaa !3
  %81 = load i32, ptr %3, align 4, !tbaa !3
  %82 = and i32 %81, 31
  %83 = shl i32 1, %82
  %84 = and i32 %83, 491521
  %85 = icmp eq i32 %84, 0
  %86 = zext i1 %85 to i8
  call void @llvm.lifetime.end.p0(i64 4, ptr %3) #6
  ret i8 %86
}